; Function Attrs: mustprogress nofree nounwind willreturn memory(read) uwtable
define hidden noundef zeroext i1 @_ZNK4cvc58internal6theory5arith6linear17InferBoundsResult14boundIsIntegerEv(ptr noundef nonnull readonly align 8 dereferenceable(96) %this) local_unnamed_addr #10 align 2 {
entry:
  %0 = load i8, ptr %this, align 8
  %tobool.i = trunc i8 %0 to i1
  %_mp_size.i.i.i.i = getelementptr inbounds nuw i8, ptr %this, i64 44
  %1 = load i32, ptr %_mp_size.i.i.i.i, align 4
  %cmp6.i.not.i.i.i = icmp eq i32 %1, 0
  %or.cond = select i1 %tobool.i, i1 %cmp6.i.not.i.i.i, i1 false
  br i1 %or.cond, label %if.then.i, label %land.end

if.then.i:                                        ; preds = %entry
  %_mp_den.i.i.i = getelementptr inbounds nuw i8, ptr %this, i64 24
  %call2.i.i = tail call i32 @__gmpz_cmp_ui(ptr noundef nonnull %_mp_den.i.i.i, i64 noundef 1) #28
  %cmp.i.i = icmp eq i32 %call2.i.i, 0
  br label %land.end

land.end:                                         ; preds = %if.then.i, %entry
  %2 = phi i1 [ false, %entry ], [ %cmp.i.i, %if.then.i ]
  ret i1 %2
}